target datalayout = "e-m:e-p270:32:32-p271:32:32-p272:64:64-i64:64-i128:128-f80:128-n8:16:32:64-S128"
target triple = "x86_64-unknown-linux-gnu"

%struct.UEnumeration = type { ptr, ptr, ptr, ptr, ptr, ptr, ptr }
%struct.Context = type { i32, i8, ptr }

; Function Attrs: mustprogress nounwind uwtable
define internal noundef signext i8 @_ZL9U_FAILURE10UErrorCode(i32 noundef %code) #3 {
entry:
  %code.addr = alloca i32, align 4
  store i32 %code, ptr %code.addr, align 4
  %0 = load i32, ptr %code.addr, align 4
  %cmp = icmp sgt i32 %0, 0
  %conv = zext i1 %cmp to i8
  ret i8 %conv
}

; Function Attrs: mustprogress uwtable
define noundef ptr @_ZN6icu_7515CharsetDetector24getAllDetectableCharsetsER10UErrorCode(ptr noundef nonnull align 4 dereferenceable(4) %status) #0 align 2 {
entry:
  %retval = alloca ptr, align 8
  %status.addr = alloca ptr, align 8
  %en = alloca ptr, align 8
  store ptr %status, ptr %status.addr, align 8
  %0 = load ptr, ptr %status.addr, align 8
  call void @_ZN6icu_7515CharsetDetector14setRecognizersER10UErrorCode(ptr noundef nonnull align 4 dereferenceable(4) %0)
  %1 = load ptr, ptr %status.addr, align 8
  %2 = load i32, ptr %1, align 4
  %call = call noundef signext i8 @_ZL9U_FAILURE10UErrorCode(i32 noundef %2)
  %tobool = icmp ne i8 %call, 0
  br i1 %tobool, label %if.then, label %if.end

if.then:                                          ; preds = %entry
  store ptr null, ptr %retval, align 8
  br label %return

if.end:                                           ; preds = %entry
  %call1 = call noalias ptr @uprv_malloc_75(i64 noundef 56) #10
  store ptr %call1, ptr %en, align 8
  %3 = load ptr, ptr %en, align 8
  %cmp = icmp eq ptr %3, null
  br i1 %cmp, label %if.then2, label %if.end3

if.then2:                                         ; preds = %if.end
  %4 = load ptr, ptr %status.addr, align 8
  store i32 7, ptr %4, align 4
  store ptr null, ptr %retval, align 8
  br label %return

if.end3:                                          ; preds = %if.end
  %5 = load ptr, ptr %en, align 8
  call void @llvm.memcpy.p0.p0.i64(ptr align 8 %5, ptr align 8 @_ZL17gCSDetEnumeration, i64 56, i1 false)
  %call4 = call noalias ptr @uprv_malloc_75(i64 noundef 16) #10
  %6 = load ptr, ptr %en, align 8
  %context = getelementptr inbounds %struct.UEnumeration, ptr %6, i32 0, i32 1
  store ptr %call4, ptr %context, align 8
  %7 = load ptr, ptr %en, align 8
  %context5 = getelementptr inbounds %struct.UEnumeration, ptr %7, i32 0, i32 1
  %8 = load ptr, ptr %context5, align 8
  %cmp6 = icmp eq ptr %8, null
  br i1 %cmp6, label %if.then7, label %if.end8

if.then7:                                         ; preds = %if.end3
  %9 = load ptr, ptr %status.addr, align 8
  store i32 7, ptr %9, align 4
  %10 = load ptr, ptr %en, align 8
  call void @uprv_free_75(ptr noundef %10)
  store ptr null, ptr %retval, align 8
  br label %return

if.end8:                                          ; preds = %if.end3
  %11 = load ptr, ptr %en, align 8
  %context9 = getelementptr inbounds %struct.UEnumeration, ptr %11, i32 0, i32 1
  %12 = load ptr, ptr %context9, align 8
  call void @llvm.memset.p0.i64(ptr align 1 %12, i8 0, i64 16, i1 false)
  %13 = load ptr, ptr %en, align 8
  %context10 = getelementptr inbounds %struct.UEnumeration, ptr %13, i32 0, i32 1
  %14 = load ptr, ptr %context10, align 8
  %all = getelementptr inbounds %struct.Context, ptr %14, i32 0, i32 1
  store i8 1, ptr %all, align 4
  %15 = load ptr, ptr %en, align 8
  store ptr %15, ptr %retval, align 8
  br label %return

return:                                           ; preds = %if.end8, %if.then7, %if.then2, %if.then
  %16 = load ptr, ptr %retval, align 8
  ret ptr %16
}