; Function Attrs: mustprogress uwtable
define noundef ptr @_ZN6icu_7515CharsetDetector24getAllDetectableCharsetsER10UErrorCode(ptr nocapture noundef nonnull align 4 dereferenceable(4) %status) local_unnamed_addr #0 align 2 {
entry:
  tail call void @_ZN6icu_7515CharsetDetector14setRecognizersER10UErrorCode(ptr noundef nonnull align 4 dereferenceable(4) %status)
  %0 = load i32, ptr %status, align 4
  %cmp.i = icmp slt i32 %0, 1
  br i1 %cmp.i, label %if.end, label %return

if.end:                                           ; preds = %entry
  %call1 = tail call noalias dereferenceable_or_null(56) ptr @uprv_malloc_75(i64 noundef 56) #15
  %cmp = icmp eq ptr %call1, null
  br i1 %cmp, label %if.then2, label %if.end3

if.then2:                                         ; preds = %if.end
  store i32 7, ptr %status, align 4
  br label %return

if.end3:                                          ; preds = %if.end
  tail call void @llvm.memcpy.p0.p0.i64(ptr noundef nonnull align 8 dereferenceable(56) %call1, ptr noundef nonnull align 8 dereferenceable(56) @_ZL17gCSDetEnumeration, i64 56, i1 false)
  %call4 = tail call noalias dereferenceable_or_null(16) ptr @uprv_malloc_75(i64 noundef 16) #15
  %context = getelementptr inbounds i8, ptr %call1, i64 8
  store ptr %call4, ptr %context, align 8
  %cmp6 = icmp eq ptr %call4, null
  br i1 %cmp6, label %if.then7, label %if.end8

if.then7:                                         ; preds = %if.end3
  store i32 7, ptr %status, align 4
  tail call void @uprv_free_75(ptr noundef nonnull %call1)
  br label %return

if.end8:                                          ; preds = %if.end3
  tail call void @llvm.memset.p0.i64(ptr noundef nonnull align 1 dereferenceable(16) %call4, i8 0, i64 16, i1 false)
  %all = getelementptr inbounds i8, ptr %call4, i64 4
  store i8 1, ptr %all, align 4
  br label %return

return:                                           ; preds = %entry, %if.end8, %if.then7, %if.then2
  %retval.0 = phi ptr [ null, %if.then2 ], [ null, %if.then7 ], [ %call1, %if.end8 ], [ null, %entry ]
  ret ptr %retval.0
}